target datalayout = "e-m:e-p270:32:32-p271:32:32-p272:64:64-i64:64-i128:128-f80:128-n8:16:32:64-S128"
target triple = "x86_64-pc-linux-gnu"

%struct.png_info_def = type { i32, i32, i32, i64, ptr, i16, i16, i8, i8, i8, i8, i8, i8, i8, i8, [8 x i8], %struct.png_colorspace, ptr, ptr, i32, i32, i32, ptr, %struct.png_time_struct, %struct.png_color_8_struct, ptr, %struct.png_color_16_struct, %struct.png_color_16_struct, i32, i32, i8, i32, i32, i8, i32, ptr, ptr, ptr, ptr, i32, i32, ptr, ptr, i8, i8, i32, ptr, i32, ptr, i32, i8, ptr, ptr, ptr }
%struct.png_colorspace = type { i32, %struct.png_xy, %struct.png_XYZ, i16, i16 }
%struct.png_xy = type { i32, i32, i32, i32, i32, i32, i32, i32 }
%struct.png_XYZ = type { i32, i32, i32, i32, i32, i32, i32, i32, i32 }
%struct.png_time_struct = type { i16, i8, i8, i8, i8, i8 }
%struct.png_color_8_struct = type { i8, i8, i8, i8, i8 }
%struct.png_color_16_struct = type { i8, i16, i16, i16, i16 }

; Function Attrs: nounwind uwtable
define void @png_set_sRGB_gAMA_and_cHRM(ptr noalias noundef %0, ptr noalias noundef %1, i32 noundef %2) #0 {
  %4 = alloca ptr, align 8
  %5 = alloca ptr, align 8
  %6 = alloca i32, align 4
  store ptr %0, ptr %4, align 8
  store ptr %1, ptr %5, align 8
  store i32 %2, ptr %6, align 4
  %7 = load ptr, ptr %4, align 8
  %8 = icmp eq ptr %7, null
  br i1 %8, label %12, label %9

9:                                                ; preds = %3
  %10 = load ptr, ptr %5, align 8
  %11 = icmp eq ptr %10, null
  br i1 %11, label %12, label %13

12:                                               ; preds = %9, %3
  br label %31

13:                                               ; preds = %9
  %14 = load ptr, ptr %4, align 8
  %15 = load ptr, ptr %5, align 8
  %16 = getelementptr inbounds %struct.png_info_def, ptr %15, i32 0, i32 16
  %17 = load i32, ptr %6, align 4
  %18 = call i32 @png_colorspace_set_sRGB(ptr noundef %14, ptr noundef %16, i32 noundef %17)
  %19 = icmp ne i32 %18, 0
  br i1 %19, label %20, label %28

20:                                               ; preds = %13
  %21 = load ptr, ptr %5, align 8
  %22 = getelementptr inbounds %struct.png_info_def, ptr %21, i32 0, i32 16
  %23 = getelementptr inbounds %struct.png_colorspace, ptr %22, i32 0, i32 4
  %24 = load i16, ptr %23, align 2
  %25 = zext i16 %24 to i32
  %26 = or i32 %25, 24
  %27 = trunc i32 %26 to i16
  store i16 %27, ptr %23, align 2
  br label %28

28:                                               ; preds = %20, %13
  %29 = load ptr, ptr %4, align 8
  %30 = load ptr, ptr %5, align 8
  call void @png_colorspace_sync_info(ptr noundef %29, ptr noundef %30)
  br label %31

31:                                               ; preds = %28, %12
  ret void
}