; Function Attrs: nounwind uwtable
define void @png_set_sRGB_gAMA_and_cHRM(ptr noalias noundef %0, ptr noalias noundef %1, i32 noundef %2) local_unnamed_addr #2 {
  %4 = icmp eq ptr %0, null
  %5 = icmp eq ptr %1, null
  %or.cond = or i1 %4, %5
  br i1 %or.cond, label %14, label %6

6:                                                ; preds = %3
  %7 = getelementptr inbounds i8, ptr %1, i64 52
  %8 = tail call i32 @png_colorspace_set_sRGB(ptr noundef nonnull %0, ptr noundef nonnull %7, i32 noundef %2) #12
  %.not = icmp eq i32 %8, 0
  br i1 %.not, label %13, label %9

9:                                                ; preds = %6
  %10 = getelementptr inbounds i8, ptr %1, i64 126
  %11 = load i16, ptr %10, align 2
  %12 = or i16 %11, 24
  store i16 %12, ptr %10, align 2
  br label %13

13:                                               ; preds = %9, %6
  tail call void @png_colorspace_sync_info(ptr noundef nonnull %0, ptr noundef nonnull %1) #12
  br label %14

14:                                               ; preds = %3, %13
  ret void
}